target datalayout = "e-m:e-p270:32:32-p271:32:32-p272:64:64-i64:64-i128:128-f80:128-n8:16:32:64-S128"
target triple = "x86_64-unknown-linux-gnu"

%class.b3Vector3 = type { %union.anon }
%union.anon = type { [4 x float] }
%class.b3Quaternion = type { %class.b3QuadWord }
%class.b3QuadWord = type { %union.anon.0 }
%union.anon.0 = type { [4 x float] }
%class.b3GpuRigidBodyPipeline = type { ptr, ptr }
%struct.b3GpuRigidBodyPipelineInternalData = type { ptr, ptr, ptr, ptr, ptr, ptr, ptr, ptr, ptr, ptr, ptr, ptr, ptr, ptr, %class.b3AlignedObjectArray, ptr, ptr, %class.b3AlignedObjectArray.7, %class.b3AlignedObjectArray.11, i32, ptr, %class.b3Vector3, %struct.b3Config }
%class.b3AlignedObjectArray = type <{ %class.b3AlignedAllocator, [3 x i8], i32, i32, [4 x i8], ptr, i8, [7 x i8] }>
%class.b3AlignedAllocator = type { i8 }
%class.b3AlignedObjectArray.7 = type <{ %class.b3AlignedAllocator.8, [3 x i8], i32, i32, [4 x i8], ptr, i8, [7 x i8] }>
%class.b3AlignedAllocator.8 = type { i8 }
%class.b3AlignedObjectArray.11 = type <{ %class.b3AlignedAllocator.12, [3 x i8], i32, i32, [4 x i8], ptr, i8, [7 x i8] }>
%class.b3AlignedAllocator.12 = type { i8 }
%struct.b3Config = type { i32, i32, i32, i32, i32, i32, i32, i32, i32, i32, i32, i32 }
%struct.b3GpuGenericConstraint = type { i32, i32, i32, float, %class.b3Vector3, %class.b3Vector3, %class.b3Quaternion, i32, i32, [2 x i32] }

; Function Attrs: mustprogress nounwind uwtable
define linkonce_odr dso_local void @_ZN10b3QuadWordC2Ev(ptr noundef nonnull align 16 dereferenceable(16) %this) unnamed_addr #6 comdat align 2 {
entry:
  %this.addr = alloca ptr, align 8
  store ptr %this, ptr %this.addr, align 8
  ret void
}

; Function Attrs: mustprogress nounwind uwtable
define linkonce_odr dso_local noundef i32 @_ZN20b3AlignedObjectArrayI22b3GpuGenericConstraintE9allocSizeEi(ptr noundef nonnull align 8 dereferenceable(25) %this, i32 noundef %size) #6 comdat align 2 {
entry:
  %this.addr = alloca ptr, align 8
  %size.addr = alloca i32, align 4
  store ptr %this, ptr %this.addr, align 8
  store i32 %size, ptr %size.addr, align 4
  %0 = load i32, ptr %size.addr, align 4
  %tobool = icmp ne i32 %0, 0
  br i1 %tobool, label %cond.true, label %cond.false

cond.true:                                        ; preds = %entry
  %1 = load i32, ptr %size.addr, align 4
  %mul = mul nsw i32 %1, 2
  br label %cond.end

cond.false:                                       ; preds = %entry
  br label %cond.end

cond.end:                                         ; preds = %cond.false, %cond.true
  %cond = phi i32 [ %mul, %cond.true ], [ 1, %cond.false ]
  ret i32 %cond
}

; Function Attrs: mustprogress nounwind uwtable
define linkonce_odr dso_local noundef i32 @_ZNK20b3AlignedObjectArrayI22b3GpuGenericConstraintE8capacityEv(ptr noundef nonnull align 8 dereferenceable(25) %this) #6 comdat align 2 {
entry:
  %this.addr = alloca ptr, align 8
  store ptr %this, ptr %this.addr, align 8
  %this1 = load ptr, ptr %this.addr, align 8
  %m_capacity = getelementptr inbounds %class.b3AlignedObjectArray.7, ptr %this1, i32 0, i32 3
  %0 = load i32, ptr %m_capacity, align 8
  ret i32 %0
}

; Function Attrs: mustprogress nounwind uwtable
define linkonce_odr dso_local noundef i32 @_ZNK20b3AlignedObjectArrayI22b3GpuGenericConstraintE4sizeEv(ptr noundef nonnull align 8 dereferenceable(25) %this) #6 comdat align 2 {
entry:
  %this.addr = alloca ptr, align 8
  store ptr %this, ptr %this.addr, align 8
  %this1 = load ptr, ptr %this.addr, align 8
  %m_size = getelementptr inbounds %class.b3AlignedObjectArray.7, ptr %this1, i32 0, i32 2
  %0 = load i32, ptr %m_size, align 4
  ret i32 %0
}

; Function Attrs: mustprogress uwtable
define linkonce_odr dso_local void @_ZN12b3QuaternionC2Ev(ptr noundef nonnull align 16 dereferenceable(16) %this) unnamed_addr #0 comdat align 2 {
entry:
  %this.addr = alloca ptr, align 8
  store ptr %this, ptr %this.addr, align 8
  %this1 = load ptr, ptr %this.addr, align 8
  call void @_ZN10b3QuadWordC2Ev(ptr noundef nonnull align 16 dereferenceable(16) %this1)
  ret void
}

; Function Attrs: mustprogress uwtable
define linkonce_odr dso_local void @_ZN20b3AlignedObjectArrayI22b3GpuGenericConstraintE9push_backERKS0_(ptr noundef nonnull align 8 dereferenceable(25) %this, ptr noundef nonnull align 16 dereferenceable(80) %_Val) #0 comdat align 2 {
entry:
  %this.addr = alloca ptr, align 8
  %_Val.addr = alloca ptr, align 8
  %sz = alloca i32, align 4
  store ptr %this, ptr %this.addr, align 8
  store ptr %_Val, ptr %_Val.addr, align 8
  %this1 = load ptr, ptr %this.addr, align 8
  %call = call noundef i32 @_ZNK20b3AlignedObjectArrayI22b3GpuGenericConstraintE4sizeEv(ptr noundef nonnull align 8 dereferenceable(25) %this1)
  store i32 %call, ptr %sz, align 4
  %0 = load i32, ptr %sz, align 4
  %call2 = call noundef i32 @_ZNK20b3AlignedObjectArrayI22b3GpuGenericConstraintE8capacityEv(ptr noundef nonnull align 8 dereferenceable(25) %this1)
  %cmp = icmp eq i32 %0, %call2
  br i1 %cmp, label %if.then, label %if.end

if.then:                                          ; preds = %entry
  %call3 = call noundef i32 @_ZNK20b3AlignedObjectArrayI22b3GpuGenericConstraintE4sizeEv(ptr noundef nonnull align 8 dereferenceable(25) %this1)
  %call4 = call noundef i32 @_ZN20b3AlignedObjectArrayI22b3GpuGenericConstraintE9allocSizeEi(ptr noundef nonnull align 8 dereferenceable(25) %this1, i32 noundef %call3)
  call void @_ZN20b3AlignedObjectArrayI22b3GpuGenericConstraintE7reserveEi(ptr noundef nonnull align 8 dereferenceable(25) %this1, i32 noundef %call4)
  br label %if.end

if.end:                                           ; preds = %if.then, %entry
  %m_data = getelementptr inbounds %class.b3AlignedObjectArray.7, ptr %this1, i32 0, i32 5
  %1 = load ptr, ptr %m_data, align 8
  %m_size = getelementptr inbounds %class.b3AlignedObjectArray.7, ptr %this1, i32 0, i32 2
  %2 = load i32, ptr %m_size, align 4
  %idxprom = sext i32 %2 to i64
  %arrayidx = getelementptr inbounds %struct.b3GpuGenericConstraint, ptr %1, i64 %idxprom
  %3 = load ptr, ptr %_Val.addr, align 8
  call void @llvm.memcpy.p0.p0.i64(ptr align 16 %arrayidx, ptr align 16 %3, i64 80, i1 false)
  %m_size5 = getelementptr inbounds %class.b3AlignedObjectArray.7, ptr %this1, i32 0, i32 2
  %4 = load i32, ptr %m_size5, align 4
  %inc = add nsw i32 %4, 1
  store i32 %inc, ptr %m_size5, align 4
  ret void
}

; Function Attrs: mustprogress nounwind uwtable
define linkonce_odr dso_local void @_ZN10b3QuadWord8setValueERKfS1_S1_S1_(ptr noundef nonnull align 16 dereferenceable(16) %this, ptr noundef nonnull align 4 dereferenceable(4) %_x, ptr noundef nonnull align 4 dereferenceable(4) %_y, ptr noundef nonnull align 4 dereferenceable(4) %_z, ptr noundef nonnull align 4 dereferenceable(4) %_w) #6 comdat align 2 {
entry:
  %this.addr = alloca ptr, align 8
  %_x.addr = alloca ptr, align 8
  %_y.addr = alloca ptr, align 8
  %_z.addr = alloca ptr, align 8
  %_w.addr = alloca ptr, align 8
  store ptr %this, ptr %this.addr, align 8
  store ptr %_x, ptr %_x.addr, align 8
  store ptr %_y, ptr %_y.addr, align 8
  store ptr %_z, ptr %_z.addr, align 8
  store ptr %_w, ptr %_w.addr, align 8
  %this1 = load ptr, ptr %this.addr, align 8
  %0 = load ptr, ptr %_x.addr, align 8
  %1 = load float, ptr %0, align 4
  %2 = getelementptr inbounds %class.b3QuadWord, ptr %this1, i32 0, i32 0
  %arrayidx = getelementptr inbounds [4 x float], ptr %2, i64 0, i64 0
  store float %1, ptr %arrayidx, align 16
  %3 = load ptr, ptr %_y.addr, align 8
  %4 = load float, ptr %3, align 4
  %5 = getelementptr inbounds %class.b3QuadWord, ptr %this1, i32 0, i32 0
  %arrayidx2 = getelementptr inbounds [4 x float], ptr %5, i64 0, i64 1
  store float %4, ptr %arrayidx2, align 4
  %6 = load ptr, ptr %_z.addr, align 8
  %7 = load float, ptr %6, align 4
  %8 = getelementptr inbounds %class.b3QuadWord, ptr %this1, i32 0, i32 0
  %arrayidx3 = getelementptr inbounds [4 x float], ptr %8, i64 0, i64 2
  store float %7, ptr %arrayidx3, align 8
  %9 = load ptr, ptr %_w.addr, align 8
  %10 = load float, ptr %9, align 4
  %11 = getelementptr inbounds %class.b3QuadWord, ptr %this1, i32 0, i32 0
  %arrayidx4 = getelementptr inbounds [4 x float], ptr %11, i64 0, i64 3
  store float %10, ptr %arrayidx4, align 4
  ret void
}

; Function Attrs: mustprogress nounwind uwtable
define linkonce_odr dso_local void @_ZN9b3Vector38setValueERKfS1_S1_(ptr noundef nonnull align 16 dereferenceable(16) %this, ptr noundef nonnull align 4 dereferenceable(4) %_x, ptr noundef nonnull align 4 dereferenceable(4) %_y, ptr noundef nonnull align 4 dereferenceable(4) %_z) #6 comdat align 2 {
entry:
  %this.addr = alloca ptr, align 8
  %_x.addr = alloca ptr, align 8
  %_y.addr = alloca ptr, align 8
  %_z.addr = alloca ptr, align 8
  store ptr %this, ptr %this.addr, align 8
  store ptr %_x, ptr %_x.addr, align 8
  store ptr %_y, ptr %_y.addr, align 8
  store ptr %_z, ptr %_z.addr, align 8
  %this1 = load ptr, ptr %this.addr, align 8
  %0 = load ptr, ptr %_x.addr, align 8
  %1 = load float, ptr %0, align 4
  %2 = getelementptr inbounds %class.b3Vector3, ptr %this1, i32 0, i32 0
  %arrayidx = getelementptr inbounds [4 x float], ptr %2, i64 0, i64 0
  store float %1, ptr %arrayidx, align 16
  %3 = load ptr, ptr %_y.addr, align 8
  %4 = load float, ptr %3, align 4
  %5 = getelementptr inbounds %class.b3Vector3, ptr %this1, i32 0, i32 0
  %arrayidx2 = getelementptr inbounds [4 x float], ptr %5, i64 0, i64 1
  store float %4, ptr %arrayidx2, align 4
  %6 = load ptr, ptr %_z.addr, align 8
  %7 = load float, ptr %6, align 4
  %8 = getelementptr inbounds %class.b3Vector3, ptr %this1, i32 0, i32 0
  %arrayidx3 = getelementptr inbounds [4 x float], ptr %8, i64 0, i64 2
  store float %7, ptr %arrayidx3, align 8
  %9 = getelementptr inbounds %class.b3Vector3, ptr %this1, i32 0, i32 0
  %arrayidx4 = getelementptr inbounds [4 x float], ptr %9, i64 0, i64 3
  store float 0.000000e+00, ptr %arrayidx4, align 4
  ret void
}

; Function Attrs: mustprogress uwtable
define linkonce_odr dso_local void @_ZN22b3GpuGenericConstraintC2Ev(ptr noundef nonnull align 16 dereferenceable(80) %this) unnamed_addr #0 comdat align 2 {
entry:
  %this.addr = alloca ptr, align 8
  store ptr %this, ptr %this.addr, align 8
  %this1 = load ptr, ptr %this.addr, align 8
  %m_relTargetAB = getelementptr inbounds %struct.b3GpuGenericConstraint, ptr %this1, i32 0, i32 6
  call void @_ZN12b3QuaternionC2Ev(ptr noundef nonnull align 16 dereferenceable(16) %m_relTargetAB)
  ret void
}

; Function Attrs: mustprogress uwtable
define dso_local noundef i32 @_ZN22b3GpuRigidBodyPipeline21createFixedConstraintEiiPKfS1_S1_f(ptr noundef nonnull align 8 dereferenceable(16) %this, i32 noundef %bodyA, i32 noundef %bodyB, ptr noundef %pivotInA, ptr noundef %pivotInB, ptr noundef %relTargetAB, float noundef %breakingThreshold) #0 align 2 {
entry:
  %this.addr = alloca ptr, align 8
  %bodyA.addr = alloca i32, align 4
  %bodyB.addr = alloca i32, align 4
  %pivotInA.addr = alloca ptr, align 8
  %pivotInB.addr = alloca ptr, align 8
  %relTargetAB.addr = alloca ptr, align 8
  %breakingThreshold.addr = alloca float, align 4
  %c = alloca %struct.b3GpuGenericConstraint, align 16
  store ptr %this, ptr %this.addr, align 8
  store i32 %bodyA, ptr %bodyA.addr, align 4
  store i32 %bodyB, ptr %bodyB.addr, align 4
  store ptr %pivotInA, ptr %pivotInA.addr, align 8
  store ptr %pivotInB, ptr %pivotInB.addr, align 8
  store ptr %relTargetAB, ptr %relTargetAB.addr, align 8
  store float %breakingThreshold, ptr %breakingThreshold.addr, align 4
  %this1 = load ptr, ptr %this.addr, align 8
  %m_data = getelementptr inbounds %class.b3GpuRigidBodyPipeline, ptr %this1, i32 0, i32 1
  %0 = load ptr, ptr %m_data, align 8
  %m_gpuSolver = getelementptr inbounds %struct.b3GpuRigidBodyPipelineInternalData, ptr %0, i32 0, i32 7
  %1 = load ptr, ptr %m_gpuSolver, align 8
  call void @_ZN24b3GpuPgsConstraintSolver16recomputeBatchesEv(ptr noundef nonnull align 8 dereferenceable(228) %1)
  call void @_ZN22b3GpuGenericConstraintC2Ev(ptr noundef nonnull align 16 dereferenceable(80) %c)
  %m_data2 = getelementptr inbounds %class.b3GpuRigidBodyPipeline, ptr %this1, i32 0, i32 1
  %2 = load ptr, ptr %m_data2, align 8
  %m_constraintUid = getelementptr inbounds %struct.b3GpuRigidBodyPipelineInternalData, ptr %2, i32 0, i32 19
  %3 = load i32, ptr %m_constraintUid, align 16
  %m_uid = getelementptr inbounds %struct.b3GpuGenericConstraint, ptr %c, i32 0, i32 8
  store i32 %3, ptr %m_uid, align 4
  %m_data3 = getelementptr inbounds %class.b3GpuRigidBodyPipeline, ptr %this1, i32 0, i32 1
  %4 = load ptr, ptr %m_data3, align 8
  %m_constraintUid4 = getelementptr inbounds %struct.b3GpuRigidBodyPipelineInternalData, ptr %4, i32 0, i32 19
  %5 = load i32, ptr %m_constraintUid4, align 16
  %inc = add nsw i32 %5, 1
  store i32 %inc, ptr %m_constraintUid4, align 16
  %m_flags = getelementptr inbounds %struct.b3GpuGenericConstraint, ptr %c, i32 0, i32 7
  store i32 1, ptr %m_flags, align 16
  %6 = load i32, ptr %bodyA.addr, align 4
  %m_rbA = getelementptr inbounds %struct.b3GpuGenericConstraint, ptr %c, i32 0, i32 1
  store i32 %6, ptr %m_rbA, align 4
  %7 = load i32, ptr %bodyB.addr, align 4
  %m_rbB = getelementptr inbounds %struct.b3GpuGenericConstraint, ptr %c, i32 0, i32 2
  store i32 %7, ptr %m_rbB, align 8
  %m_pivotInA = getelementptr inbounds %struct.b3GpuGenericConstraint, ptr %c, i32 0, i32 4
  %8 = load ptr, ptr %pivotInA.addr, align 8
  %arrayidx = getelementptr inbounds float, ptr %8, i64 0
  %9 = load ptr, ptr %pivotInA.addr, align 8
  %arrayidx5 = getelementptr inbounds float, ptr %9, i64 1
  %10 = load ptr, ptr %pivotInA.addr, align 8
  %arrayidx6 = getelementptr inbounds float, ptr %10, i64 2
  call void @_ZN9b3Vector38setValueERKfS1_S1_(ptr noundef nonnull align 16 dereferenceable(16) %m_pivotInA, ptr noundef nonnull align 4 dereferenceable(4) %arrayidx, ptr noundef nonnull align 4 dereferenceable(4) %arrayidx5, ptr noundef nonnull align 4 dereferenceable(4) %arrayidx6)
  %m_pivotInB = getelementptr inbounds %struct.b3GpuGenericConstraint, ptr %c, i32 0, i32 5
  %11 = load ptr, ptr %pivotInB.addr, align 8
  %arrayidx7 = getelementptr inbounds float, ptr %11, i64 0
  %12 = load ptr, ptr %pivotInB.addr, align 8
  %arrayidx8 = getelementptr inbounds float, ptr %12, i64 1
  %13 = load ptr, ptr %pivotInB.addr, align 8
  %arrayidx9 = getelementptr inbounds float, ptr %13, i64 2
  call void @_ZN9b3Vector38setValueERKfS1_S1_(ptr noundef nonnull align 16 dereferenceable(16) %m_pivotInB, ptr noundef nonnull align 4 dereferenceable(4) %arrayidx7, ptr noundef nonnull align 4 dereferenceable(4) %arrayidx8, ptr noundef nonnull align 4 dereferenceable(4) %arrayidx9)
  %m_relTargetAB = getelementptr inbounds %struct.b3GpuGenericConstraint, ptr %c, i32 0, i32 6
  %14 = load ptr, ptr %relTargetAB.addr, align 8
  %arrayidx10 = getelementptr inbounds float, ptr %14, i64 0
  %15 = load ptr, ptr %relTargetAB.addr, align 8
  %arrayidx11 = getelementptr inbounds float, ptr %15, i64 1
  %16 = load ptr, ptr %relTargetAB.addr, align 8
  %arrayidx12 = getelementptr inbounds float, ptr %16, i64 2
  %17 = load ptr, ptr %relTargetAB.addr, align 8
  %arrayidx13 = getelementptr inbounds float, ptr %17, i64 3
  call void @_ZN10b3QuadWord8setValueERKfS1_S1_S1_(ptr noundef nonnull align 16 dereferenceable(16) %m_relTargetAB, ptr noundef nonnull align 4 dereferenceable(4) %arrayidx10, ptr noundef nonnull align 4 dereferenceable(4) %arrayidx11, ptr noundef nonnull align 4 dereferenceable(4) %arrayidx12, ptr noundef nonnull align 4 dereferenceable(4) %arrayidx13)
  %18 = load float, ptr %breakingThreshold.addr, align 4
  %m_breakingImpulseThreshold = getelementptr inbounds %struct.b3GpuGenericConstraint, ptr %c, i32 0, i32 3
  store float %18, ptr %m_breakingImpulseThreshold, align 4
  %m_constraintType = getelementptr inbounds %struct.b3GpuGenericConstraint, ptr %c, i32 0, i32 0
  store i32 4, ptr %m_constraintType, align 16
  %m_data14 = getelementptr inbounds %class.b3GpuRigidBodyPipeline, ptr %this1, i32 0, i32 1
  %19 = load ptr, ptr %m_data14, align 8
  %m_cpuConstraints = getelementptr inbounds %struct.b3GpuRigidBodyPipelineInternalData, ptr %19, i32 0, i32 17
  call void @_ZN20b3AlignedObjectArrayI22b3GpuGenericConstraintE9push_backERKS0_(ptr noundef nonnull align 8 dereferenceable(25) %m_cpuConstraints, ptr noundef nonnull align 16 dereferenceable(80) %c)
  %m_uid15 = getelementptr inbounds %struct.b3GpuGenericConstraint, ptr %c, i32 0, i32 8
  %20 = load i32, ptr %m_uid15, align 4
  ret i32 %20
}