; Function Attrs: mustprogress uwtable
define dso_local noundef i32 @_ZN22b3GpuRigidBodyPipeline21createFixedConstraintEiiPKfS1_S1_f(ptr nocapture noundef nonnull readonly align 8 dereferenceable(16) %this, i32 noundef %bodyA, i32 noundef %bodyB, ptr nocapture noundef readonly %pivotInA, ptr nocapture noundef readonly %pivotInB, ptr nocapture noundef readonly %relTargetAB, float noundef %breakingThreshold) local_unnamed_addr #2 align 2 {
entry:
  %m_data = getelementptr inbounds i8, ptr %this, i64 8
  %0 = load ptr, ptr %m_data, align 8
  %m_gpuSolver = getelementptr inbounds i8, ptr %0, i64 56
  %1 = load ptr, ptr %m_gpuSolver, align 8
  tail call void @_ZN24b3GpuPgsConstraintSolver16recomputeBatchesEv(ptr noundef nonnull align 8 dereferenceable(228) %1)
  %2 = load ptr, ptr %m_data, align 8
  %m_constraintUid = getelementptr inbounds i8, ptr %2, i64 224
  %3 = load i32, ptr %m_constraintUid, align 16
  %inc = add nsw i32 %3, 1
  store i32 %inc, ptr %m_constraintUid, align 16
  %arrayidx6 = getelementptr inbounds i8, ptr %pivotInA, i64 8
  %4 = load <2 x float>, ptr %pivotInA, align 4
  %5 = load float, ptr %arrayidx6, align 4
  %arrayidx9 = getelementptr inbounds i8, ptr %pivotInB, i64 8
  %6 = load <2 x float>, ptr %pivotInB, align 4
  %7 = load float, ptr %arrayidx9, align 4
  %8 = load <4 x float>, ptr %relTargetAB, align 4
  %9 = load ptr, ptr %m_data, align 8
  %m_size.i.i = getelementptr inbounds i8, ptr %9, i64 164
  %10 = load i32, ptr %m_size.i.i, align 4
  %m_capacity.i.i = getelementptr inbounds i8, ptr %9, i64 168
  %11 = load i32, ptr %m_capacity.i.i, align 8
  %cmp.i = icmp eq i32 %10, %11
  br i1 %cmp.i, label %if.then.i, label %_ZN20b3AlignedObjectArrayI22b3GpuGenericConstraintE9push_backERKS0_.exit

if.then.i:                                        ; preds = %entry
  %m_cpuConstraints = getelementptr inbounds i8, ptr %9, i64 160
  %tobool.not.i.i = icmp eq i32 %10, 0
  %mul.i.i = shl nsw i32 %10, 1
  %cond.i.i = select i1 %tobool.not.i.i, i32 1, i32 %mul.i.i
  tail call void @_ZN20b3AlignedObjectArrayI22b3GpuGenericConstraintE7reserveEi(ptr noundef nonnull align 8 dereferenceable(25) %m_cpuConstraints, i32 noundef %cond.i.i)
  %.pre.i = load i32, ptr %m_size.i.i, align 4
  br label %_ZN20b3AlignedObjectArrayI22b3GpuGenericConstraintE9push_backERKS0_.exit

_ZN20b3AlignedObjectArrayI22b3GpuGenericConstraintE9push_backERKS0_.exit: ; preds = %entry, %if.then.i
  %12 = phi i32 [ %.pre.i, %if.then.i ], [ %10, %entry ]
  %m_data.i = getelementptr inbounds i8, ptr %9, i64 176
  %13 = load ptr, ptr %m_data.i, align 8
  %idxprom.i = sext i32 %12 to i64
  %arrayidx.i = getelementptr inbounds %struct.b3GpuGenericConstraint, ptr %13, i64 %idxprom.i
  store i32 4, ptr %arrayidx.i, align 16
  %c.sroa.2.0.arrayidx.i.sroa_idx = getelementptr inbounds i8, ptr %arrayidx.i, i64 4
  store i32 %bodyA, ptr %c.sroa.2.0.arrayidx.i.sroa_idx, align 4
  %c.sroa.3.0.arrayidx.i.sroa_idx = getelementptr inbounds i8, ptr %arrayidx.i, i64 8
  store i32 %bodyB, ptr %c.sroa.3.0.arrayidx.i.sroa_idx, align 8
  %c.sroa.4.0.arrayidx.i.sroa_idx = getelementptr inbounds i8, ptr %arrayidx.i, i64 12
  store float %breakingThreshold, ptr %c.sroa.4.0.arrayidx.i.sroa_idx, align 4
  %c.sroa.5.0.arrayidx.i.sroa_idx = getelementptr inbounds i8, ptr %arrayidx.i, i64 16
  store <2 x float> %4, ptr %c.sroa.5.0.arrayidx.i.sroa_idx, align 16
  %c.sroa.7.0.arrayidx.i.sroa_idx = getelementptr inbounds i8, ptr %arrayidx.i, i64 24
  store float %5, ptr %c.sroa.7.0.arrayidx.i.sroa_idx, align 8
  %c.sroa.8.0.arrayidx.i.sroa_idx = getelementptr inbounds i8, ptr %arrayidx.i, i64 28
  store float 0.000000e+00, ptr %c.sroa.8.0.arrayidx.i.sroa_idx, align 4
  %c.sroa.9.0.arrayidx.i.sroa_idx = getelementptr inbounds i8, ptr %arrayidx.i, i64 32
  store <2 x float> %6, ptr %c.sroa.9.0.arrayidx.i.sroa_idx, align 16
  %c.sroa.11.0.arrayidx.i.sroa_idx = getelementptr inbounds i8, ptr %arrayidx.i, i64 40
  store float %7, ptr %c.sroa.11.0.arrayidx.i.sroa_idx, align 8
  %c.sroa.12.0.arrayidx.i.sroa_idx = getelementptr inbounds i8, ptr %arrayidx.i, i64 44
  store float 0.000000e+00, ptr %c.sroa.12.0.arrayidx.i.sroa_idx, align 4
  %c.sroa.13.0.arrayidx.i.sroa_idx = getelementptr inbounds i8, ptr %arrayidx.i, i64 48
  store <4 x float> %8, ptr %c.sroa.13.0.arrayidx.i.sroa_idx, align 16
  %c.sroa.17.0.arrayidx.i.sroa_idx = getelementptr inbounds i8, ptr %arrayidx.i, i64 64
  store i32 1, ptr %c.sroa.17.0.arrayidx.i.sroa_idx, align 16
  %c.sroa.18.0.arrayidx.i.sroa_idx = getelementptr inbounds i8, ptr %arrayidx.i, i64 68
  store i32 %3, ptr %c.sroa.18.0.arrayidx.i.sroa_idx, align 4
  %14 = load i32, ptr %m_size.i.i, align 4
  %inc.i = add nsw i32 %14, 1
  store i32 %inc.i, ptr %m_size.i.i, align 4
  ret i32 %3
}